target datalayout = "e-m:e-p270:32:32-p271:32:32-p272:64:64-i64:64-i128:128-f80:128-n8:16:32:64-S128"
target triple = "x86_64-pc-linux-gnu"

%"class.arrow::Status" = type { ptr }
%"struct.arrow::PrettyPrintOptions" = type { i32, i32, i32, i32, %"class.std::__cxx11::basic_string", i8, i8, i8, i8, %"struct.arrow::PrettyPrintDelimiters", %"struct.arrow::PrettyPrintDelimiters" }
%"class.std::__cxx11::basic_string" = type { %"struct.std::__cxx11::basic_string<char>::_Alloc_hider", i64, %union.anon }
%"struct.std::__cxx11::basic_string<char>::_Alloc_hider" = type { ptr }
%union.anon = type { i64, [8 x i8] }
%"struct.arrow::PrettyPrintDelimiters" = type { %"class.std::__cxx11::basic_string", %"class.std::__cxx11::basic_string", %"class.std::__cxx11::basic_string" }
%"class.arrow::(anonymous namespace)::ArrayPrinter" = type { %"class.arrow::(anonymous namespace)::PrettyPrinter" }
%"class.arrow::(anonymous namespace)::PrettyPrinter" = type { ptr, i32, ptr }

; Function Attrs: mustprogress nounwind uwtable
define internal void @_ZN5arrow12_GLOBAL__N_113PrettyPrinterC2ERKNS_18PrettyPrintOptionsEPSo(ptr noundef nonnull align 8 dereferenceable(24) %0, ptr noundef nonnull align 8 dereferenceable(248) %1, ptr noundef %2) unnamed_addr #4 align 2 {
  %4 = alloca ptr, align 8
  %5 = alloca ptr, align 8
  %6 = alloca ptr, align 8
  store ptr %0, ptr %4, align 8, !tbaa !175
  store ptr %1, ptr %5, align 8, !tbaa !64
  store ptr %2, ptr %6, align 8, !tbaa !55
  %7 = load ptr, ptr %4, align 8
  %8 = getelementptr inbounds nuw %"class.arrow::(anonymous namespace)::PrettyPrinter", ptr %7, i32 0, i32 0
  %9 = load ptr, ptr %5, align 8, !tbaa !64
  store ptr %9, ptr %8, align 8, !tbaa !64
  %10 = getelementptr inbounds nuw %"class.arrow::(anonymous namespace)::PrettyPrinter", ptr %7, i32 0, i32 1
  %11 = load ptr, ptr %5, align 8, !tbaa !64
  %12 = getelementptr inbounds nuw %"struct.arrow::PrettyPrintOptions", ptr %11, i32 0, i32 0
  %13 = load i32, ptr %12, align 8, !tbaa !57
  store i32 %13, ptr %10, align 8, !tbaa !177
  %14 = getelementptr inbounds nuw %"class.arrow::(anonymous namespace)::PrettyPrinter", ptr %7, i32 0, i32 2
  %15 = load ptr, ptr %6, align 8, !tbaa !55
  store ptr %15, ptr %14, align 8, !tbaa !178
  ret void
}

; Function Attrs: mustprogress uwtable
define internal void @_ZN5arrow12_GLOBAL__N_112ArrayPrinterC2ERKNS_18PrettyPrintOptionsEPSo(ptr noundef nonnull align 8 dereferenceable(24) %0, ptr noundef nonnull align 8 dereferenceable(248) %1, ptr noundef %2) unnamed_addr #5 align 2 {
  %4 = alloca ptr, align 8
  %5 = alloca ptr, align 8
  %6 = alloca ptr, align 8
  store ptr %0, ptr %4, align 8, !tbaa !73
  store ptr %1, ptr %5, align 8, !tbaa !64
  store ptr %2, ptr %6, align 8, !tbaa !55
  %7 = load ptr, ptr %4, align 8
  %8 = load ptr, ptr %5, align 8, !tbaa !64
  %9 = load ptr, ptr %6, align 8, !tbaa !55
  call void @_ZN5arrow12_GLOBAL__N_113PrettyPrinterC2ERKNS_18PrettyPrintOptionsEPSo(ptr noundef nonnull align 8 dereferenceable(24) %7, ptr noundef nonnull align 8 dereferenceable(248) %8, ptr noundef %9)
  ret void
}

; Function Attrs: mustprogress uwtable
define void @_ZN5arrow11PrettyPrintERKNS_5ArrayERKNS_18PrettyPrintOptionsEPSo(ptr dead_on_unwind noalias writable sret(%"class.arrow::Status") align 8 %0, ptr noundef nonnull align 8 dereferenceable(32) %1, ptr noundef nonnull align 8 dereferenceable(248) %2, ptr noundef %3) #5 {
  %5 = alloca ptr, align 8
  %6 = alloca ptr, align 8
  %7 = alloca ptr, align 8
  %8 = alloca ptr, align 8
  %9 = alloca %"class.arrow::(anonymous namespace)::ArrayPrinter", align 8
  store ptr %0, ptr %5, align 8
  store ptr %1, ptr %6, align 8, !tbaa !53
  store ptr %2, ptr %7, align 8, !tbaa !64
  store ptr %3, ptr %8, align 8, !tbaa !55
  call void @llvm.lifetime.start.p0(i64 24, ptr %9) #3
  %10 = load ptr, ptr %7, align 8, !tbaa !64
  %11 = load ptr, ptr %8, align 8, !tbaa !55
  call void @_ZN5arrow12_GLOBAL__N_112ArrayPrinterC2ERKNS_18PrettyPrintOptionsEPSo(ptr noundef nonnull align 8 dereferenceable(24) %9, ptr noundef nonnull align 8 dereferenceable(248) %10, ptr noundef %11)
  %12 = load ptr, ptr %6, align 8, !tbaa !53
  call void @_ZN5arrow12_GLOBAL__N_112ArrayPrinter5PrintERKNS_5ArrayE(ptr dead_on_unwind writable sret(%"class.arrow::Status") align 8 %0, ptr noundef nonnull align 8 dereferenceable(24) %9, ptr noundef nonnull align 8 dereferenceable(32) %12)
  call void @llvm.lifetime.end.p0(i64 24, ptr %9) #3
  ret void
}