; Function Attrs: mustprogress uwtable
define void @_ZN5arrow11PrettyPrintERKNS_5ArrayERKNS_18PrettyPrintOptionsEPSo(ptr dead_on_unwind noalias writable sret(%"class.arrow::Status") align 8 %0, ptr noundef nonnull align 8 dereferenceable(32) %1, ptr noundef nonnull align 8 dereferenceable(248) %2, ptr noundef %3) local_unnamed_addr #4 {
  %5 = alloca %"class.arrow::(anonymous namespace)::ArrayPrinter", align 8
  call void @llvm.lifetime.start.p0(i64 24, ptr nonnull %5) #20
  store ptr %2, ptr %5, align 8, !tbaa !56
  %6 = getelementptr inbounds nuw i8, ptr %5, i64 8
  %7 = load i32, ptr %2, align 8, !tbaa !55
  store i32 %7, ptr %6, align 8, !tbaa !58
  %8 = getelementptr inbounds nuw i8, ptr %5, i64 16
  store ptr %3, ptr %8, align 8, !tbaa !61
  call fastcc void @_ZN5arrow12_GLOBAL__N_112ArrayPrinter5PrintERKNS_5ArrayE(ptr dead_on_unwind noalias writable align 8 %0, ptr noundef nonnull align 8 dereferenceable(24) %5, ptr noundef nonnull align 8 dereferenceable(32) %1)
  call void @llvm.lifetime.end.p0(i64 24, ptr nonnull %5) #20
  ret void
}